target datalayout = "e-m:e-p270:32:32-p271:32:32-p272:64:64-i64:64-i128:128-f80:128-n8:16:32:64-S128"
target triple = "x86_64-pc-linux-gnu"

@_ZTIN6icu_777UObjectE = external constant ptr
@_ZTIN6icu_7712DateIntervalE = external constant ptr

; Function Attrs: inlinehint mustprogress nounwind uwtable
define internal noundef signext i8 @_ZL9U_FAILURE10UErrorCode(i32 noundef %0) #2 {
  %2 = alloca i32, align 4
  store i32 %0, ptr %2, align 4, !tbaa !15
  %3 = load i32, ptr %2, align 4, !tbaa !15
  %4 = icmp sgt i32 %3, 0
  %5 = zext i1 %4 to i8
  ret i8 %5
}

; Function Attrs: mustprogress uwtable
define noundef nonnull align 8 dereferenceable(64) ptr @_ZNK6icu_7718DateIntervalFormat6formatERKNS_11FormattableERNS_13UnicodeStringERNS_13FieldPositionER10UErrorCode(ptr noundef nonnull align 8 dereferenceable(1596) %0, ptr noundef nonnull align 8 dereferenceable(112) %1, ptr noundef nonnull align 8 dereferenceable(64) %2, ptr noundef nonnull align 8 dereferenceable(20) %3, ptr noundef nonnull align 4 dereferenceable(4) %4) unnamed_addr #1 align 2 {
  %6 = alloca ptr, align 8
  %7 = alloca ptr, align 8
  %8 = alloca ptr, align 8
  %9 = alloca ptr, align 8
  %10 = alloca ptr, align 8
  %11 = alloca ptr, align 8
  %12 = alloca ptr, align 8
  %13 = alloca ptr, align 8
  %14 = alloca i32, align 4
  store ptr %0, ptr %7, align 8, !tbaa !39
  store ptr %1, ptr %8, align 8, !tbaa !83
  store ptr %2, ptr %9, align 8, !tbaa !41
  store ptr %3, ptr %10, align 8, !tbaa !85
  store ptr %4, ptr %11, align 8, !tbaa !22
  %15 = load ptr, ptr %7, align 8
  %16 = load ptr, ptr %11, align 8, !tbaa !22
  %17 = load i32, ptr %16, align 4, !tbaa !15
  %18 = call noundef signext i8 @_ZL9U_FAILURE10UErrorCode(i32 noundef %17)
  %19 = icmp ne i8 %18, 0
  br i1 %19, label %20, label %22

20:                                               ; preds = %5
  %21 = load ptr, ptr %9, align 8, !tbaa !41
  store ptr %21, ptr %6, align 8
  br label %51

22:                                               ; preds = %5
  %23 = load ptr, ptr %8, align 8, !tbaa !83
  %24 = call noundef i32 @_ZNK6icu_7711Formattable7getTypeEv(ptr noundef nonnull align 8 dereferenceable(112) %23)
  %25 = icmp eq i32 %24, 6
  br i1 %25, label %26, label %48

26:                                               ; preds = %22
  call void @llvm.lifetime.start.p0(i64 8, ptr %12) #12
  %27 = load ptr, ptr %8, align 8, !tbaa !83
  %28 = call noundef ptr @_ZNK6icu_7711Formattable9getObjectEv(ptr noundef nonnull align 8 dereferenceable(112) %27)
  store ptr %28, ptr %12, align 8, !tbaa !87
  call void @llvm.lifetime.start.p0(i64 8, ptr %13) #12
  %29 = load ptr, ptr %12, align 8, !tbaa !87
  %30 = icmp eq ptr %29, null
  br i1 %30, label %33, label %31

31:                                               ; preds = %26
  %32 = call ptr @__dynamic_cast(ptr %29, ptr @_ZTIN6icu_777UObjectE, ptr @_ZTIN6icu_7712DateIntervalE, i64 0) #12
  br label %34

33:                                               ; preds = %26
  br label %34

34:                                               ; preds = %33, %31
  %35 = phi ptr [ %32, %31 ], [ null, %33 ]
  store ptr %35, ptr %13, align 8, !tbaa !89
  %36 = load ptr, ptr %13, align 8, !tbaa !89
  %37 = icmp ne ptr %36, null
  br i1 %37, label %38, label %44

38:                                               ; preds = %34
  %39 = load ptr, ptr %13, align 8, !tbaa !89
  %40 = load ptr, ptr %9, align 8, !tbaa !41
  %41 = load ptr, ptr %10, align 8, !tbaa !85
  %42 = load ptr, ptr %11, align 8, !tbaa !22
  %43 = call noundef nonnull align 8 dereferenceable(64) ptr @_ZNK6icu_7718DateIntervalFormat6formatEPKNS_12DateIntervalERNS_13UnicodeStringERNS_13FieldPositionER10UErrorCode(ptr noundef nonnull align 8 dereferenceable(1596) %15, ptr noundef %39, ptr noundef nonnull align 8 dereferenceable(64) %40, ptr noundef nonnull align 8 dereferenceable(20) %41, ptr noundef nonnull align 4 dereferenceable(4) %42)
  store ptr %43, ptr %6, align 8
  store i32 1, ptr %14, align 4
  br label %45

44:                                               ; preds = %34
  store i32 0, ptr %14, align 4
  br label %45

45:                                               ; preds = %44, %38
  call void @llvm.lifetime.end.p0(i64 8, ptr %13) #12
  call void @llvm.lifetime.end.p0(i64 8, ptr %12) #12
  %46 = load i32, ptr %14, align 4
  switch i32 %46, label %53 [
    i32 0, label %47
    i32 1, label %51
  ]

47:                                               ; preds = %45
  br label %48

48:                                               ; preds = %47, %22
  %49 = load ptr, ptr %11, align 8, !tbaa !22
  store i32 1, ptr %49, align 4, !tbaa !15
  %50 = load ptr, ptr %9, align 8, !tbaa !41
  store ptr %50, ptr %6, align 8
  br label %51

51:                                               ; preds = %48, %45, %20
  %52 = load ptr, ptr %6, align 8
  ret ptr %52

53:                                               ; preds = %45
  unreachable
}