; Function Attrs: mustprogress uwtable
define noundef nonnull align 8 dereferenceable(64) ptr @_ZNK6icu_7718DateIntervalFormat6formatERKNS_11FormattableERNS_13UnicodeStringERNS_13FieldPositionER10UErrorCode(ptr noundef nonnull align 8 dereferenceable(1596) %0, ptr noundef nonnull align 8 dereferenceable(112) %1, ptr noundef nonnull align 8 dereferenceable(64) %2, ptr noundef nonnull align 8 dereferenceable(20) %3, ptr noundef nonnull align 4 dereferenceable(4) %4) unnamed_addr #1 align 2 {
  %6 = load i32, ptr %4, align 4, !tbaa !13
  %7 = icmp slt i32 %6, 1
  br i1 %7, label %8, label %18

8:                                                ; preds = %5
  %9 = tail call noundef i32 @_ZNK6icu_7711Formattable7getTypeEv(ptr noundef nonnull align 8 dereferenceable(112) %1)
  %10 = icmp eq i32 %9, 6
  br i1 %10, label %11, label %.thread20

11:                                               ; preds = %8
  %12 = tail call noundef ptr @_ZNK6icu_7711Formattable9getObjectEv(ptr noundef nonnull align 8 dereferenceable(112) %1)
  %13 = icmp eq ptr %12, null
  br i1 %13, label %.thread20, label %14

14:                                               ; preds = %11
  %15 = tail call ptr @__dynamic_cast(ptr nonnull %12, ptr nonnull @_ZTIN6icu_777UObjectE, ptr nonnull @_ZTIN6icu_7712DateIntervalE, i64 0) #19
  %.not17.not = icmp eq ptr %15, null
  br i1 %.not17.not, label %.thread20, label %16

16:                                               ; preds = %14
  %17 = tail call noundef nonnull align 8 dereferenceable(64) ptr @_ZNK6icu_7718DateIntervalFormat6formatEPKNS_12DateIntervalERNS_13UnicodeStringERNS_13FieldPositionER10UErrorCode(ptr noundef nonnull align 8 dereferenceable(1596) %0, ptr noundef nonnull %15, ptr noundef nonnull align 8 dereferenceable(64) %2, ptr noundef nonnull align 8 dereferenceable(20) %3, ptr noundef nonnull align 4 dereferenceable(4) %4)
  br label %18

.thread20:                                        ; preds = %11, %14, %8
  store i32 1, ptr %4, align 4, !tbaa !13
  br label %18

18:                                               ; preds = %16, %5, %.thread20
  %.014 = phi ptr [ %17, %16 ], [ %2, %.thread20 ], [ %2, %5 ]
  ret ptr %.014
}